target datalayout = "e-m:e-p270:32:32-p271:32:32-p272:64:64-i64:64-i128:128-f80:128-n8:16:32:64-S128"
target triple = "x86_64-pc-linux-gnu"

; Function Attrs: nounwind uwtable
define internal i32 @dsa_match(ptr noundef %0, ptr noundef %1, i32 noundef %2) #0 {
  %4 = alloca i32, align 4
  %5 = alloca ptr, align 8
  %6 = alloca ptr, align 8
  %7 = alloca i32, align 4
  %8 = alloca ptr, align 8
  %9 = alloca ptr, align 8
  %10 = alloca i32, align 4
  %11 = alloca i32, align 4
  %12 = alloca i32, align 4
  %13 = alloca ptr, align 8
  %14 = alloca ptr, align 8
  %15 = alloca ptr, align 8
  %16 = alloca ptr, align 8
  %17 = alloca ptr, align 8
  %18 = alloca ptr, align 8
  store ptr %0, ptr %5, align 8, !tbaa !3
  store ptr %1, ptr %6, align 8, !tbaa !3
  store i32 %2, ptr %7, align 4, !tbaa !7
  call void @llvm.lifetime.start.p0(i64 8, ptr %8) #7
  %19 = load ptr, ptr %5, align 8, !tbaa !3
  store ptr %19, ptr %8, align 8, !tbaa !27
  call void @llvm.lifetime.start.p0(i64 8, ptr %9) #7
  %20 = load ptr, ptr %6, align 8, !tbaa !3
  store ptr %20, ptr %9, align 8, !tbaa !27
  call void @llvm.lifetime.start.p0(i64 4, ptr %10) #7
  store i32 1, ptr %10, align 4, !tbaa !7
  %21 = call i32 @ossl_prov_is_running()
  %22 = icmp ne i32 %21, 0
  br i1 %22, label %24, label %23

23:                                               ; preds = %3
  store i32 0, ptr %4, align 4
  store i32 1, ptr %11, align 4
  br label %113

24:                                               ; preds = %3
  %25 = load i32, ptr %7, align 4, !tbaa !7
  %26 = and i32 %25, 3
  %27 = icmp ne i32 %26, 0
  br i1 %27, label %28, label %92

28:                                               ; preds = %24
  call void @llvm.lifetime.start.p0(i64 4, ptr %12) #7
  store i32 0, ptr %12, align 4, !tbaa !7
  %29 = load i32, ptr %7, align 4, !tbaa !7
  %30 = and i32 %29, 2
  %31 = icmp ne i32 %30, 0
  br i1 %31, label %32, label %54

32:                                               ; preds = %28
  call void @llvm.lifetime.start.p0(i64 8, ptr %13) #7
  %33 = load ptr, ptr %8, align 8, !tbaa !27
  %34 = call ptr @DSA_get0_pub_key(ptr noundef %33)
  store ptr %34, ptr %13, align 8, !tbaa !49
  call void @llvm.lifetime.start.p0(i64 8, ptr %14) #7
  %35 = load ptr, ptr %9, align 8, !tbaa !27
  %36 = call ptr @DSA_get0_pub_key(ptr noundef %35)
  store ptr %36, ptr %14, align 8, !tbaa !49
  %37 = load ptr, ptr %13, align 8, !tbaa !49
  %38 = icmp ne ptr %37, null
  br i1 %38, label %39, label %53

39:                                               ; preds = %32
  %40 = load ptr, ptr %14, align 8, !tbaa !49
  %41 = icmp ne ptr %40, null
  br i1 %41, label %42, label %53

42:                                               ; preds = %39
  %43 = load i32, ptr %10, align 4, !tbaa !7
  %44 = icmp ne i32 %43, 0
  br i1 %44, label %45, label %50

45:                                               ; preds = %42
  %46 = load ptr, ptr %13, align 8, !tbaa !49
  %47 = load ptr, ptr %14, align 8, !tbaa !49
  %48 = call i32 @BN_cmp(ptr noundef %46, ptr noundef %47)
  %49 = icmp eq i32 %48, 0
  br label %50

50:                                               ; preds = %45, %42
  %51 = phi i1 [ false, %42 ], [ %49, %45 ]
  %52 = zext i1 %51 to i32
  store i32 %52, ptr %10, align 4, !tbaa !7
  store i32 1, ptr %12, align 4, !tbaa !7
  br label %53

53:                                               ; preds = %50, %39, %32
  call void @llvm.lifetime.end.p0(i64 8, ptr %14) #7
  call void @llvm.lifetime.end.p0(i64 8, ptr %13) #7
  br label %54

54:                                               ; preds = %53, %28
  %55 = load i32, ptr %12, align 4, !tbaa !7
  %56 = icmp ne i32 %55, 0
  br i1 %56, label %83, label %57

57:                                               ; preds = %54
  %58 = load i32, ptr %7, align 4, !tbaa !7
  %59 = and i32 %58, 1
  %60 = icmp ne i32 %59, 0
  br i1 %60, label %61, label %83

61:                                               ; preds = %57
  call void @llvm.lifetime.start.p0(i64 8, ptr %15) #7
  %62 = load ptr, ptr %8, align 8, !tbaa !27
  %63 = call ptr @DSA_get0_priv_key(ptr noundef %62)
  store ptr %63, ptr %15, align 8, !tbaa !49
  call void @llvm.lifetime.start.p0(i64 8, ptr %16) #7
  %64 = load ptr, ptr %9, align 8, !tbaa !27
  %65 = call ptr @DSA_get0_priv_key(ptr noundef %64)
  store ptr %65, ptr %16, align 8, !tbaa !49
  %66 = load ptr, ptr %15, align 8, !tbaa !49
  %67 = icmp ne ptr %66, null
  br i1 %67, label %68, label %82

68:                                               ; preds = %61
  %69 = load ptr, ptr %16, align 8, !tbaa !49
  %70 = icmp ne ptr %69, null
  br i1 %70, label %71, label %82

71:                                               ; preds = %68
  %72 = load i32, ptr %10, align 4, !tbaa !7
  %73 = icmp ne i32 %72, 0
  br i1 %73, label %74, label %79

74:                                               ; preds = %71
  %75 = load ptr, ptr %15, align 8, !tbaa !49
  %76 = load ptr, ptr %16, align 8, !tbaa !49
  %77 = call i32 @BN_cmp(ptr noundef %75, ptr noundef %76)
  %78 = icmp eq i32 %77, 0
  br label %79

79:                                               ; preds = %74, %71
  %80 = phi i1 [ false, %71 ], [ %78, %74 ]
  %81 = zext i1 %80 to i32
  store i32 %81, ptr %10, align 4, !tbaa !7
  store i32 1, ptr %12, align 4, !tbaa !7
  br label %82

82:                                               ; preds = %79, %68, %61
  call void @llvm.lifetime.end.p0(i64 8, ptr %16) #7
  call void @llvm.lifetime.end.p0(i64 8, ptr %15) #7
  br label %83

83:                                               ; preds = %82, %57, %54
  %84 = load i32, ptr %10, align 4, !tbaa !7
  %85 = icmp ne i32 %84, 0
  br i1 %85, label %86, label %89

86:                                               ; preds = %83
  %87 = load i32, ptr %12, align 4, !tbaa !7
  %88 = icmp ne i32 %87, 0
  br label %89

89:                                               ; preds = %86, %83
  %90 = phi i1 [ false, %83 ], [ %88, %86 ]
  %91 = zext i1 %90 to i32
  store i32 %91, ptr %10, align 4, !tbaa !7
  call void @llvm.lifetime.end.p0(i64 4, ptr %12) #7
  br label %92

92:                                               ; preds = %89, %24
  %93 = load i32, ptr %7, align 4, !tbaa !7
  %94 = and i32 %93, 4
  %95 = icmp ne i32 %94, 0
  br i1 %95, label %96, label %111

96:                                               ; preds = %92
  call void @llvm.lifetime.start.p0(i64 8, ptr %17) #7
  %97 = load ptr, ptr %8, align 8, !tbaa !27
  %98 = call ptr @ossl_dsa_get0_params(ptr noundef %97)
  store ptr %98, ptr %17, align 8, !tbaa !40
  call void @llvm.lifetime.start.p0(i64 8, ptr %18) #7
  %99 = load ptr, ptr %9, align 8, !tbaa !27
  %100 = call ptr @ossl_dsa_get0_params(ptr noundef %99)
  store ptr %100, ptr %18, align 8, !tbaa !40
  %101 = load i32, ptr %10, align 4, !tbaa !7
  %102 = icmp ne i32 %101, 0
  br i1 %102, label %103, label %108

103:                                              ; preds = %96
  %104 = load ptr, ptr %17, align 8, !tbaa !40
  %105 = load ptr, ptr %18, align 8, !tbaa !40
  %106 = call i32 @ossl_ffc_params_cmp(ptr noundef %104, ptr noundef %105, i32 noundef 1)
  %107 = icmp ne i32 %106, 0
  br label %108

108:                                              ; preds = %103, %96
  %109 = phi i1 [ false, %96 ], [ %107, %103 ]
  %110 = zext i1 %109 to i32
  store i32 %110, ptr %10, align 4, !tbaa !7
  call void @llvm.lifetime.end.p0(i64 8, ptr %18) #7
  call void @llvm.lifetime.end.p0(i64 8, ptr %17) #7
  br label %111

111:                                              ; preds = %108, %92
  %112 = load i32, ptr %10, align 4, !tbaa !7
  store i32 %112, ptr %4, align 4
  store i32 1, ptr %11, align 4
  br label %113

113:                                              ; preds = %111, %23
  call void @llvm.lifetime.end.p0(i64 4, ptr %10) #7
  call void @llvm.lifetime.end.p0(i64 8, ptr %9) #7
  call void @llvm.lifetime.end.p0(i64 8, ptr %8) #7
  %114 = load i32, ptr %4, align 4
  ret i32 %114
}